; Function Attrs: mustprogress nounwind uwtable
define hidden void @_ZN4llvh6detail9IEEEFloatD2Ev(ptr noundef nonnull readonly align 8 captures(none) dereferenceable(24) %this) unnamed_addr #2 align 2 {
entry:
  %0 = load ptr, ptr %this, align 8
  %precision.i.i.i = getelementptr inbounds nuw i8, ptr %0, i64 4
  %1 = load i32, ptr %precision.i.i.i, align 4
  %2 = add i32 %1, -64
  %cmp.i.i = icmp ult i32 %2, -128
  br i1 %cmp.i.i, label %if.then.i, label %_ZN4llvh6detail9IEEEFloat15freeSignificandEv.exit

if.then.i:                                        ; preds = %entry
  %significand.i = getelementptr inbounds nuw i8, ptr %this, i64 8
  %3 = load ptr, ptr %significand.i, align 8
  %isnull.i = icmp eq ptr %3, null
  br i1 %isnull.i, label %_ZN4llvh6detail9IEEEFloat15freeSignificandEv.exit, label %delete.notnull.i

delete.notnull.i:                                 ; preds = %if.then.i
  tail call void @_ZdaPv(ptr noundef nonnull %3) #25
  br label %_ZN4llvh6detail9IEEEFloat15freeSignificandEv.exit

_ZN4llvh6detail9IEEEFloat15freeSignificandEv.exit: ; preds = %entry, %if.then.i, %delete.notnull.i
  ret void
}